(dp0
(S'tangled'
p1
S'islands'
p2
tp3
I0
s(S'brutal'
p4
S'honesty'
p5
tp6
I8
s(S'unstable'
p7
S'life'
p8
tp9
I1
s(S'swelling'
p10
S'pride'
p11
tp12
I0
s(S'falling'
p13
S'wage'
p14
tp15
I0
s(S'lost'
p16
S'inspiration'
p17
tp18
I0
s(S'crippling'
p19
S'debt'
p20
tp21
I0
s(S'strong'
p22
S'skills'
p23
tp24
I0
s(S'social'
p25
S'construct'
p26
tp27
I0
s(S'fading'
p28
S'life'
p29
tp30
I0
s(S'suppressed'
p31
S'wage'
p32
tp33
I0
s(S'turbulent'
p34
S'time'
p35
tp36
I1
s(S'spiritual'
p37
S'current'
p38
tp39
I0
s(S'poisonous'
p40
S'look'
p41
tp42
I3
s(S'crushing'
p43
S'difficulty'
p44
tp45
I0
s(S'stony'
p46
S'face'
p47
tp48
I15
s(S'financial'
p49
S'hub'
p50
tp51
I0
s(S'higher'
p52
S'growth'
p53
tp54
I0
s(S'bruised'
p55
S'ego'
p56
tp57
I0
s(S'lost'
p58
S'history'
p59
tp60
I0
s(S'healthy'
p61
S'economy'
p62
tp63
I0
s(S'growing'
p64
S'need'
p65
tp66
I0
s(S'burning'
p67
S'question'
p68
tp69
I0
s(S'paralyzing'
p70
S'fear'
p71
tp72
I0
s(S'low'
p73
S'wage'
p74
tp75
I0
s(S'mischievous'
p76
S'eyes'
p77
tp78
I6
s(S'hard'
p79
S'money'
p80
tp81
I0
s(S'sad'
p82
S'truth'
p83
tp84
I23
s(S'merciless'
p85
S'sunshine'
p86
tp87
I0
s(S'raw'
p88
S'beauty'
p89
tp90
I2
s(S'broken'
p91
S'home'
p92
tp93
I2
s(S'economic'
p94
S'pie'
p95
tp96
I0
s(S'inflationary'
p97
S'pressure'
p98
tp99
I0
s(S'raw'
p100
S'idea'
p101
tp102
I1
s(S'high'
p103
S'cost'
p104
tp105
I0
s(S'spineless'
p106
S'position'
p107
tp108
I0
s(S'cold'
p109
S'gaze'
p110
tp111
I0
s(S'golden'
p112
S'boy'
p113
tp114
I0
s(S'brilliant'
p115
S'eyes'
p116
tp117
I18
s(S'tender'
p118
S'softness'
p119
tp120
I0
s(S'raw'
p121
S'frontier'
p122
tp123
I1
s(S'lazy'
p124
S'sunshine'
p125
tp126
I0
s(S'burning'
p127
S'desire'
p128
tp129
I0
s(S'gentle'
p130
S'eyes'
p131
tp132
I11
s(S'deeper'
p133
S'poverty'
p134
tp135
I0
s(S'healthy'
p136
S'democracy'
p137
tp138
I1
s(S'steep'
p139
S'tax'
p140
tp141
I0
s(S'political'
p142
S'life'
p143
tp144
I0
s(S'rude'
p145
S'awakening'
p146
tp147
I1
s(S'deep'
p148
S'thought'
p149
tp150
I1
s(S'sweet'
p151
S'air'
p152
tp153
I0
s(S'wooden'
p154
S'heart'
p155
tp156
I0
s(S'rising'
p157
S'prosperity'
p158
tp159
I0
s(S'feeding'
p160
S'frenzy'
p161
tp162
I0
s(S'friendly'
p163
S'board'
p164
tp165
I0
s(S'silent'
p166
S'world'
p167
tp168
I16
s(S'growing'
p169
S'gap'
p170
tp171
I0
s(S'socialist'
p172
S'paradise'
p173
tp174
I0
s(S'invisible'
p175
S'poor'
p176
tp177
I0
s(S'social'
p178
S'imprisonment'
p179
tp180
I0
s(S'heated'
p181
S'debate'
p182
tp183
I0
s(S'political'
p184
S'voice'
p185
tp186
I0
s(S'fading'
p187
S'moments'
p188
tp189
I0
s(S'silky'
p190
S'hands'
p191
tp192
I0
s(S'loud'
p193
S'suit'
p194
tp195
I1
s(S'bitter'
p196
S'thought'
p197
tp198
I0
s(S'debilitating'
p199
S'poverty'
p200
tp201
I0
s(S'wracking'
p202
S'poverty'
p203
tp204
I0
s(S'economic'
p205
S'climate'
p206
tp207
I4
s(S'liquid'
p208
S'eyes'
p209
tp210
I2
s(S'dimmed'
p211
S'prospect'
p212
tp213
I0
s(S'bubbly'
p214
S'personality'
p215
tp216
I2
s(S'crisp'
p217
S'afternoon'
p218
tp219
I0
s(S'penetrating'
p220
S'look'
p221
tp222
I15
s(S'unquenchable'
p223
S'passion'
p224
tp225
I0
s(S'heart-breaking'
p226
S'story'
p227
tp228
I0
s(S'high'
p229
S'dependency'
p230
tp231
I0
s(S'balanced'
p232
S'growth'
p233
tp234
I0
s(S'soggy'
p235
S'clouds'
p236
tp237
I0
s(S'fleeting'
p238
S'memories'
p239
tp240
I1
s(S'structural'
p241
S'poverty'
p242
tp243
I0
s(S'heavy'
p244
S'air'
p245
tp246
I0
s(S'nameless'
p247
S'faces'
p248
tp249
I3
s(S'ecological'
p250
S'footprint'
p251
tp252
I1
s(S'economic'
p253
S'sphere'
p254
tp255
I0
s(S'financial'
p256
S'instrument'
p257
tp258
I0
s(S'higher'
p259
S'tax'
p260
tp261
I1
s(S'economic'
p262
S'heap'
p263
tp264
I0
s(S'strong'
p265
S'economy'
p266
tp267
I0
s(S'fiscal'
p268
S'house'
p269
tp270
I0
s(S'unhealthy'
p271
S'division'
p272
tp273
I0
s(S'durable'
p274
S'class'
p275
tp276
I0
s(S'deserted'
p277
S'friendship'
p278
tp279
I0
s(S'modern'
p280
S'mind'
p281
tp282
I0
s(S'paralyzing'
p283
S'chain'
p284
tp285
I0
s(S'toxic'
p286
S'marriage'
p287
tp288
I0
s(S'crushing'
p289
S'unemployment'
p290
tp291
I0
s(S'high'
p292
S'vulnerability'
p293
tp294
I0
s(S'dodgy'
p295
S'bar'
p296
tp297
I0
s(S'hungry'
p298
S'eyes'
p299
tp300
I26
s(S'flat'
p301
S'tax'
p302
tp303
I2
s(S'mad'
p304
S'money'
p305
tp306
I0
s(S'burning'
p307
S'issue'
p308
tp309
I0
s(S'hungry'
p310
S'love'
p311
tp312
I0
s(S'lopsided'
p313
S'ratio'
p314
tp315
I0
s(S'soaring'
p316
S'debt'
p317
tp318
I0
s(S'durable'
p319
S'middle-class'
p320
tp321
I0
s(S'economic'
p322
S'medicine'
p323
tp324
I0
s(S'turbulent'
p325
S'history'
p326
tp327
I2
s(S'golden'
p328
S'opportunity'
p329
tp330
I0
s(S'socioeconomic'
p331
S'decline'
p332
tp333
I0
s(S'elegant'
p334
S'solution'
p335
tp336
I11
s(S'economic'
p337
S'ladder'
p338
tp339
I3
s(S'unquenchable'
p340
S'flame'
p341
tp342
I0
s(S'growing'
p343
S'imbalance'
p344
tp345
I0
s(S'flaring'
p346
S'mustache'
p347
tp348
I0
s(S'economic'
p349
S'growth'
p350
tp351
I10
s(S'deep'
p352
S'winter'
p353
tp354
I3
s(S'racial'
p355
S'line'
p356
tp357
I0
s(S'clouded'
p358
S'future'
p359
tp360
I0
s(S'ruthless'
p361
S'corporation'
p362
tp363
I0
s(S'faint'
p364
S'memory'
p365
tp366
I0
s(S'stable'
p367
S'rule'
p368
tp369
I0
s(S'oppressive'
p370
S'rate'
p371
tp372
I0
s(S'grinding'
p373
S'poverty'
p374
tp375
I0
s(S'weak'
p376
S'bourgeoisie'
p377
tp378
I0
s(S'clean'
p379
S'energy'
p380
tp381
I0
s(S'social'
p382
S'tension'
p383
tp384
I3
s(S'ballooning'
p385
S'expenditure'
p386
tp387
I0
s(S'glowing'
p388
S'review'
p389
tp390
I0
s(S'empty'
p391
S'mind'
p392
tp393
I0
s(S'blossoming'
p394
S'industry'
p395
tp396
I0
s(S'overheating'
p397
S'economy'
p398
tp399
I1
s(S'floating'
p400
S'mountains'
p401
tp402
I0
s(S'tortured'
p403
S'earth'
p404
tp405
I0
s(S'economic'
p406
S'mobility'
p407
tp408
I0
s(S'rising'
p409
S'China'
p410
tp411
I0
s(S'restless'
p412
S'soul'
p413
tp414
I6
s(S'wretched'
p415
S'city'
p416
tp417
I3
s(S'heavenly'
p418
S'smile'
p419
tp420
I4
s(S'stiff'
p421
S'wind'
p422
tp423
I0
s(S'dim'
p424
S'beginnings'
p425
tp426
I0
s(S'lost'
p427
S'touch'
p428
tp429
I1
s(S'violent'
p430
S'sunshine'
p431
tp432
I0
s(S'green'
p433
S'economy'
p434
tp435
I0
s(S'gentle'
p436
S'ocean'
p437
tp438
I1
s(S'thick'
p439
S'air'
p440
tp441
I43
s(S'lost'
p442
S'freedom'
p443
tp444
I0
s(S'vain'
p445
S'hope'
p446
tp447
I17
s(S'promising'
p448
S'future'
p449
tp450
I0
s(S'insistent'
p451
S'wind'
p452
tp453
I2
s(S'thriving'
p454
S'business'
p455
tp456
I0
s(S'crushing'
p457
S'neglect'
p458
tp459
I0
s(S'economic'
p460
S'gap'
p461
tp462
I0
s(S'shining'
p463
S'example'
p464
tp465
I0
s(S'socioeconomic'
p466
S'line'
p467
tp468
I0
s(S'empty'
p469
S'dreams'
p470
tp471
I0
s(S'gentle'
p472
S'slopes'
p473
tp474
I9
s(S'beaten'
p475
S'path'
p476
tp477
I22
s(S'social'
p478
S'madness'
p479
tp480
I0
s(S'silken'
p481
S'lies'
p482
tp483
I0
s(S'colliding'
p484
S'contradiction'
p485
tp486
I0
s(S'broken'
p487
S'family'
p488
tp489
I0
s(S'gentle'
p490
S'alarm'
p491
tp492
I0
s(S'short-sighted'
p493
S'cut'
p494
tp495
I0
s(S'fresh'
p496
S'breeze'
p497
tp498
I14
s(S'breakneck'
p499
S'expansion'
p500
tp501
I0
s(S'delicate'
p502
S'dance'
p503
tp504
I4
s(S'fading'
p505
S'heart'
p506
tp507
I0
s(S'flagging'
p508
S'fortune'
p509
tp510
I0
s(S'mental'
p511
S'breakdown'
p512
tp513
I11
s(S'obese'
p514
S'government'
p515
tp516
I0
s(S'restless'
p517
S'city'
p518
tp519
I0
s(S'vast'
p520
S'expenditure'
p521
tp522
I0
s(S'hollow'
p523
S'darkness'
p524
tp525
I0
s(S'crushing'
p526
S'ignorance'
p527
tp528
I0
s(S'fiery'
p529
S'eyes'
p530
tp531
I17
s(S'myopic'
p532
S'attempt'
p533
tp534
I0
s(S'deep'
p535
S'love'
p536
tp537
I2
s(S'economic'
p538
S'meltdown'
p539
tp540
I0
s(S'pliable'
p541
S'committee'
p542
tp543
I0
s(S'rising'
p544
S'crime'
p545
tp546
I0
s(S'poetic'
p547
S'frenzy'
p548
tp549
I1
s(S'social'
p550
S'explosion'
p551
tp552
I0
s(S'flashy'
p553
S'smile'
p554
tp555
I3
s(S'financial'
p556
S'bubble'
p557
tp558
I0
s(S'spiritual'
p559
S'updraft'
p560
tp561
I0
s(S'deep'
p562
S'silence'
p563
tp564
I1
s(S'unquenchable'
p565
S'lust'
p566
tp567
I0
s(S'blind'
p568
S'optimism'
p569
tp570
I0
s(S'lonely'
p571
S'desolation'
p572
tp573
I0
s(S'charming'
p574
S'dress'
p575
tp576
I0
s(S'dynamic'
p577
S'personality'
p578
tp579
I0
s(S'filthy'
p580
S'ego'
p581
tp582
I0
s(S'ghostly'
p583
S'sound'
p584
tp585
I3
s(S'inflammatory'
p586
S'topic'
p587
tp588
I1
s(S'wasted'
p589
S'soul'
p590
tp591
I0
s(S'rising'
p592
S'gap'
p593
tp594
I0
s(S'white'
p595
S'silence'
p596
tp597
I0
s(S'social'
p598
S'cost'
p599
tp600
I0
s(S'medical'
p601
S'field'
p602
tp603
I0
s(S'thriving'
p604
S'class'
p605
tp606
I0
s(S'heartless'
p607
S'cruelty'
p608
tp609
I0
s(S'gloomy'
p610
S'mood'
p611
tp612
I2
s(S'burning'
p613
S'passion'
p614
tp615
I0
s(S'faint'
p616
S'impression'
p617
tp618
I0
s(S'economic'
p619
S'strength'
p620
tp621
I3
s(S'political'
p622
S'will'
p623
tp624
I0
s(S'unfolding'
p625
S'tragedy'
p626
tp627
I0
s(S'low'
p628
S'tax'
p629
tp630
I0
s(S'societal'
p631
S'pie'
p632
tp633
I0
s(S'rotten'
p634
S'promise'
p635
tp636
I0
s(S'thorny'
p637
S'question'
p638
tp639
I0
s(S'gentle'
p640
S'breeze'
p641
tp642
I72
s(S'strong'
p643
S'law'
p644
tp645
I0
s(S'heart-stopping'
p646
S'moment'
p647
tp648
I0
s(S'chilling'
p649
S'story'
p650
tp651
I1
s(S'economic'
p652
S'prescription'
p653
tp654
I0
s(S'shady'
p655
S'character'
p656
tp657
I10
s(S'restless'
p658
S'spirit'
p659
tp660
I8
s(S'graceful'
p661
S'dunes'
p662
tp663
I0
s(S'fragile'
p664
S'ego'
p665
tp666
I4
s(S'unspeakable'
p667
S'power'
p668
tp669
I1
s(S'loud'
p670
S'dressing'
p671
tp672
I0
s(S'graceful'
p673
S'mountains'
p674
tp675
I0
s(S'clear-cut'
p676
S'solution'
p677
tp678
I0
s(S'cautious'
p679
S'smile'
p680
tp681
I3
s(S'deepening'
p682
S'crisis'
p683
tp684
I0
s(S'dim'
p685
S'reminder'
p686
tp687
I0
s(S'firm'
p688
S'gaze'
p689
tp690
I0
s(S'hollow'
p691
S'victory'
p692
tp693
I0
s(S'colorful'
p694
S'personality'
p695
tp696
I0
s(S'broken'
p697
S'heart'
p698
tp699
I0
s(S'runaway'
p700
S'inequality'
p701
tp702
I0
s(S'falling'
p703
S'productivity'
p704
tp705
I0
s(S'unquenchable'
p706
S'curiosity'
p707
tp708
I0
s(S'penetrating'
p709
S'gaze'
p710
tp711
I14
s(S'tame'
p712
S'hair'
p713
tp714
I0
s(S'cultural'
p715
S'impediment'
p716
tp717
I0
s(S'growing'
p718
S'economy'
p719
tp720
I0
s(S'blind'
p721
S'hate'
p722
tp723
I0
s(S'shaky'
p724
S'assumptions'
p725
tp726
I0
s(S'spirited'
p727
S'discussion'
p728
tp729
I0
s(S'deep'
p730
S'distress'
p731
tp732
I0
s(S'sweet'
p733
S'life'
p734
tp735
I0
s(S'strong'
p736
S'strategy'
p737
tp738
I0
s(S'transparent'
p739
S'plan'
p740
tp741
I0
s(S'chronic'
p742
S'unemployment'
p743
tp744
I1
s(S'golden'
p745
S'moment'
p746
tp747
I0
s(S'economic'
p748
S'strengthening'
p749
tp750
I0
s(S'laughing'
p751
S'water'
p752
tp753
I0
s(S'blind'
p754
S'love'
p755
tp756
I0
s(S'cosmic'
p757
S'loneliness'
p758
tp759
I1
s(S'fading'
p760
S'sounds'
p761
tp762
I0
s(S'sleazy'
p763
S'character'
p764
tp765
I0
s(S'sparse'
p766
S'tax'
p767
tp768
I0
s(S'filthy'
p769
S'movie'
p770
tp771
I0
s(S'velvet'
p772
S'skin'
p773
tp774
I5
s(S'deep'
p775
S'trouble'
p776
tp777
I1
s(S'greasy'
p778
S'sky'
p779
tp780
I0
s(S'green'
p781
S'materials'
p782
tp783
I0
s(S'unreadable'
p784
S'face'
p785
tp786
I0
s(S'deep'
p787
S'motivation'
p788
tp789
I0
s(S'growing'
p790
S'passion'
p791
tp792
I0
s(S'political'
p793
S'stress'
p794
tp795
I0
s(S'celestial'
p796
S'smile'
p797
tp798
I0
s(S'dirt'
p799
S'poor'
p800
tp801
I12
s(S'wide'
p802
S'sky'
p803
tp804
I0
s(S'heated'
p805
S'discussion'
p806
tp807
I0
s(S'debilitating'
p808
S'heat'
p809
tp810
I2
s(S'icy'
p811
S'jewelry'
p812
tp813
I0
s(S'relentless'
p814
S'history'
p815
tp816
I0
s(S'crippling'
p817
S'fear'
p818
tp819
I0
s(S'naked'
p820
S'truth'
p821
tp822
I6
s(S'fading'
p823
S'memory'
p824
tp825
I0
s(S'crippling'
p826
S'corruption'
p827
tp828
I0
s(S'financial'
p829
S'concentration'
p830
tp831
I0
s(S'vicious'
p832
S'cycle'
p833
tp834
I15
s(S'higher'
p835
S'wage'
p836
tp837
I0
s(S'deep'
p838
S'interest'
p839
tp840
I0
s(S'quick'
p841
S'money'
p842
tp843
I0
s(S'growing'
p844
S'inequality'
p845
tp846
I0
s(S'huge'
p847
S'ambition'
p848
tp849
I0
s(S'open'
p850
S'face'
p851
tp852
I0
s(S'soaring'
p853
S'cost'
p854
tp855
I0
s(S'swelling'
p856
S'rate'
p857
tp858
I0
s(S'drowsy'
p859
S'heat'
p860
tp861
I2
s(S'blissful'
p862
S'ignorance'
p863
tp864
I0
s(S'seductive'
p865
S'greenery'
p866
tp867
I0
s(S'crippling'
p868
S'anxiety'
p869
tp870
I0
s(S'emerging'
p871
S'economy'
p872
tp873
I0
s(S'landlocked'
p874
S'isolation'
p875
tp876
I0
s(S'whispering'
p877
S'breeze'
p878
tp879
I0
s(S'emotional'
p880
S'impact'
p881
tp882
I13
s(S'economic'
p883
S'slump'
p884
tp885
I2
s(S'gloomy'
p886
S'silence'
p887
tp888
I9
s(S'fleeting'
p889
S'moment'
p890
tp891
I41
s(S'filthy'
p892
S'lucre'
p893
tp894
I6
s(S'wooden'
p895
S'face'
p896
tp897
I2
s(S'iron'
p898
S'ghosts'
p899
tp900
I0
s(S'blue'
p901
S'feelings'
p902
tp903
I0
s(S'delicate'
p904
S'balance'
p905
tp906
I25
s(S'political'
p907
S'positioning'
p908
tp909
I0
s(S'deep'
p910
S'space'
p911
tp912
I2
s(S'steely'
p913
S'eyes'
p914
tp915
I15
s(S'broken'
p916
S'promise'
p917
tp918
I0
s(S'cold'
p919
S'eyes'
p920
tp921
I0
s(S'stagnant'
p922
S'level'
p923
tp924
I0
s(S'touchy'
p925
S'subject'
p926
tp927
I10
s(S'vast'
p928
S'wealth'
p929
tp930
I7
s(S'living'
p931
S'legend'
p932
tp933
I0
s(S'stable'
p934
S'family'
p935
tp936
I0
s(S'roaring'
p937
S'engine'
p938
tp939
I0
s(S'frozen'
p940
S'memories'
p941
tp942
I0
s(S'heated'
p943
S'argument'
p944
tp945
I0
s(S'healthy'
p946
S'middle-class'
p947
tp948
I0
s(S'tumbling'
p949
S'creeks'
p950
tp951
I0
s(S'roaring'
p952
S'ocean'
p953
tp954
I0
s(S'lost'
p955
S'city'
p956
tp957
I0
s(S'mental'
p958
S'baggage'
p959
tp960
I1
s(S'heavenly'
p961
S'touch'
p962
tp963
I0
s(S'uncharted'
p964
S'latitudes'
p965
tp966
I0
s(S'drab'
p967
S'existence'
p968
tp969
I0
s(S'metallic'
p970
S'voice'
p971
tp972
I17
s(S'economic'
p973
S'slide'
p974
tp975
I0
s(S'deep'
p976
S'sorrow'
p977
tp978
I0
s(S'cultural'
p979
S'strength'
p980
tp981
I0
s(S'spotless'
p982
S'reputation'
p983
tp984
I2
s(S'sweeping'
p985
S'reform'
p986
tp987
I0
s(S'economic'
p988
S'force'
p989
tp990
I0
s(S'political'
p991
S'cost'
p992
tp993
I0
s(S'soaring'
p994
S'crime'
p995
tp996
I0
s(S'urban'
p997
S'decay'
p998
tp999
I0
s(S'clear-cut'
p1000
S'answer'
p1001
tp1002
I0
s(S'sleepy'
p1003
S'land'
p1004
tp1005
I0
s(S'haunting'
p1006
S'awareness'
p1007
tp1008
I0
s(S'playful'
p1009
S'energy'
p1010
tp1011
I1
s(S'copper'
p1012
S'hair'
p1013
tp1014
I15
s(S'oppressive'
p1015
S'taxation'
p1016
tp1017
I0
s(S'singing'
p1018
S'spring'
p1019
tp1020
I0
s(S'strong'
p1021
S'will'
p1022
tp1023
I0
s(S'soaring'
p1024
S'spirit'
p1025
tp1026
I1
s(S'deep'
p1027
S'rank'
p1028
tp1029
I0
s(S'rising'
p1030
S'rate'
p1031
tp1032
I0
s(S'untameable'
p1033
S'past'
p1034
tp1035
I0
s(S'grinding'
p1036
S'misery'
p1037
tp1038
I0
s(S'impenetrable'
p1039
S'face'
p1040
tp1041
I0
s(S'acute'
p1042
S'poverty'
p1043
tp1044
I0
s(S'bright'
p1045
S'idea'
p1046
tp1047
I0
s(S'sexy'
p1048
S'design'
p1049
tp1050
I0
s(S'mounting'
p1051
S'evidence'
p1052
tp1053
I0
s(S'backward'
p1054
S'policy'
p1055
tp1056
I0
s(S'low'
p1057
S'income'
p1058
tp1059
I0
s(S'living'
p1060
S'dead'
p1061
tp1062
I0
s(S'heavy'
p1063
S'tax'
p1064
tp1065
I0
s(S'pressing'
p1066
S'need'
p1067
tp1068
I0
s(S'heavy'
p1069
S'marketing'
p1070
tp1071
I0
s(S'deeply-rooted'
p1072
S'problem'
p1073
tp1074
I0
s(S'healthy'
p1075
S'motivation'
p1076
tp1077
I0
s(S'blind'
p1078
S'fury'
p1079
tp1080
I0
s(S'aggressive'
p1081
S'program'
p1082
tp1083
I0
s(S'violent'
p1084
S'place'
p1085
tp1086
I5
s(S'sharp'
p1087
S'contrast'
p1088
tp1089
I0
s(S'dark'
p1090
S'thought'
p1091
tp1092
I1
s(S'burdened'
p1093
S'service'
p1094
tp1095
I0
s(S'graceful'
p1096
S'hills'
p1097
tp1098
I0
s(S'social'
p1099
S'field'
p1100
tp1101
I0
s(S'lonely'
p1102
S'cabin'
p1103
tp1104
I0
s(S'dirty'
p1105
S'thoughts'
p1106
tp1107
I0
s(S'colorful'
p1108
S'remark'
p1109
tp1110
I0
s(S'bloated'
p1111
S'ego'
p1112
tp1113
I1
s(S'desolate'
p1114
S'beauty'
p1115
tp1116
I0
s(S'shining'
p1117
S'promise'
p1118
tp1119
I0
s(S'mental'
p1120
S'toll'
p1121
tp1122
I0
s(S'soft'
p1123
S'language'
p1124
tp1125
I0
s(S'healthy'
p1126
S'community'
p1127
tp1128
I0
s(S'gripping'
p1129
S'classic'
p1130
tp1131
I0
s(S'social'
p1132
S'collapse'
p1133
tp1134
I1
s(S'tortured'
p1135
S'landscape'
p1136
tp1137
I0
s(S'golden'
p1138
S'voice'
p1139
tp1140
I0
s(S'turbulent'
p1141
S'times'
p1142
tp1143
I4
s(S'velvet'
p1144
S'voice'
p1145
tp1146
I5
s(S'social'
p1147
S'anxiety'
p1148
tp1149
I2
s(S'velvet'
p1150
S'hands'
p1151
tp1152
I0
s(S'urban'
p1153
S'growth'
p1154
tp1155
I0
s(S'tight-fisted'
p1156
S'budget'
p1157
tp1158
I0
s(S'burning'
p1159
S'soul'
p1160
tp1161
I0
s(S'dead'
p1162
S'eyes'
p1163
tp1164
I0
s(S'scolding'
p1165
S'sun'
p1166
tp1167
I0
s(S'palpable'
p1168
S'energy'
p1169
tp1170
I2
s(S'icy'
p1171
S'eyes'
p1172
tp1173
I13
s(S'violent'
p1174
S'times'
p1175
tp1176
I5
s(S'shining'
p1177
S'future'
p1178
tp1179
I0
s(S'strongest'
p1180
S'school'
p1181
tp1182
I0
s(S'easy'
p1183
S'money'
p1184
tp1185
I0
s(S'straightforward'
p1186
S'narrative'
p1187
tp1188
I0
s(S'rising'
p1189
S'inequality'
p1190
tp1191
I0
s(S'mesmerizing'
p1192
S'voice'
p1193
tp1194
I0
s(S'dirty'
p1195
S'desires'
p1196
tp1197
I0
s(S'blind'
p1198
S'hope'
p1199
tp1200
I0
s(S'murky'
p1201
S'policy'
p1202
tp1203
I0
s(S'fierce'
p1204
S'stare'
p1205
tp1206
I1
s(S'wearied'
p1207
S'patience'
p1208
tp1209
I0
s(S'concentrated'
p1210
S'effort'
p1211
tp1212
I8
s(S'plummeting'
p1213
S'rate'
p1214
tp1215
I0
s(S'flexible'
p1216
S'market'
p1217
tp1218
I0
s(S'roaring'
p1219
S'river'
p1220
tp1221
I0
s(S'economic'
p1222
S'destruction'
p1223
tp1224
I0
s(S'small'
p1225
S'finance'
p1226
tp1227
I0
s(S'social'
p1228
S'gap'
p1229
tp1230
I0
s(S'rolling'
p1231
S'hills'
p1232
tp1233
I0
s(S'rotten'
p1234
S'humor'
p1235
tp1236
I0
s(S'lost'
p1237
S'hope'
p1238
tp1239
I0
s(S'sparkling'
p1240
S'eyes'
p1241
tp1242
I0
s(S'ghostly'
p1243
S'music'
p1244
tp1245
I0
s(S'empty'
p1246
S'life'
p1247
tp1248
I0
s(S'enlightened'
p1249
S'age'
p1250
tp1251
I0
s(S'educational'
p1252
S'gap'
p1253
tp1254
I0
s(S'unblemished'
p1255
S'optimism'
p1256
tp1257
I0
s(S'blazing'
p1258
S'desolation'
p1259
tp1260
I0
s(S'paralyzing'
p1261
S'depression'
p1262
tp1263
I0
s(S'big'
p1264
S'ego'
p1265
tp1266
I0
s(S'injured'
p1267
S'ego'
p1268
tp1269
I0
s(S'bitter'
p1270
S'day'
p1271
tp1272
I0
s(S'crushing'
p1273
S'cycle'
p1274
tp1275
I0
s(S'vast'
p1276
S'underclass'
p1277
tp1278
I0
s(S'social'
p1279
S'mobility'
p1280
tp1281
I5
s(S'backbreaking'
p1282
S'rent'
p1283
tp1284
I0
s(S'cultural'
p1285
S'barrier'
p1286
tp1287
I1
s(S'heated'
p1288
S'criticism'
p1289
tp1290
I0
s(S'clear'
p1291
S'responsibility'
p1292
tp1293
I0
s(S'glaring'
p1294
S'eyes'
p1295
tp1296
I10
s(S'restless'
p1297
S'land'
p1298
tp1299
I0
s(S'soaring'
p1300
S'poverty'
p1301
tp1302
I0
s(S'moral'
p1303
S'blemish'
p1304
tp1305
I0
s(S'unquenchable'
p1306
S'fire'
p1307
tp1308
I1
s(S'impatient'
p1309
S'energy'
p1310
tp1311
I0
s(S'enormous'
p1312
S'ego'
p1313
tp1314
I3
s(S'glorious'
p1315
S'page'
p1316
tp1317
I0
s(S'shallow'
p1318
S'beliefs'
p1319
tp1320
I0
s(S'emotional'
p1321
S'meltdown'
p1322
tp1323
I2
s(S'lonely'
p1324
S'house'
p1325
tp1326
I9
s(S'strong'
p1327
S'motivation'
p1328
tp1329
I0
s(S'political'
p1330
S'tapestry'
p1331
tp1332
I0
s(S'social'
p1333
S'ignorance'
p1334
tp1335
I0
s(S'shrinking'
p1336
S'mobility'
p1337
tp1338
I0
s(S'wrinkled'
p1339
S'smile'
p1340
tp1341
I0
s(S'crazy'
p1342
S'money'
p1343
tp1344
I0
s(S'roaring'
p1345
S'heights'
p1346
tp1347
I0
s(S'crisp'
p1348
S'morning'
p1349
tp1350
I0
s(S'lonely'
p1351
S'hill'
p1352
tp1353
I1
s(S'fishy'
p1354
S'offer'
p1355
tp1356
I0
s(S'scowling'
p1357
S'clouds'
p1358
tp1359
I0
s(S'bushy'
p1360
S'beard'
p1361
tp1362
I21
s(S'unwavering'
p1363
S'honesty'
p1364
tp1365
I0
s(S'struggling'
p1366
S'middle-class'
p1367
tp1368
I0
s(S'collapsing'
p1369
S'health'
p1370
tp1371
I0
s(S'freighted'
p1372
S'question'
p1373
tp1374
I0
s(S'vibrant'
p1375
S'economy'
p1376
tp1377
I2
s(S'heavy'
p1378
S'criticism'
p1379
tp1380
I0
s(S'dark'
p1381
S'history'
p1382
tp1383
I0
s(S'societal'
p1384
S'tapestry'
p1385
tp1386
I0
s(S'unreadable'
p1387
S'eyes'
p1388
tp1389
I0
s(S'blind'
p1390
S'obedience'
p1391
tp1392
I0
s(S'chronic'
p1393
S'poverty'
p1394
tp1395
I0
s(S'stagnant'
p1396
S'condition'
p1397
tp1398
I0
s(S'low'
p1399
S'price'
p1400
tp1401
I0
s(S'terminal'
p1402
S'poverty'
p1403
tp1404
I0
s(S'sweet'
p1405
S'dreams'
p1406
tp1407
I0
s(S'crippling'
p1408
S'poverty'
p1409
tp1410
I0
s(S'swelling'
p1411
S'ego'
p1412
tp1413
I0
s(S'biting'
p1414
S'wind'
p1415
tp1416
I0
s(S'spiraling'
p1417
S'debt'
p1418
tp1419
I0
s(S'explosive'
p1420
S'growth'
p1421
tp1422
I2
s(S'deep'
p1423
S'inequality'
p1424
tp1425
I0
s(S'unforgiving'
p1426
S'times'
p1427
tp1428
I0
s(S'backward'
p1429
S'area'
p1430
tp1431
I0
s(S'friendly'
p1432
S'waves'
p1433
tp1434
I0
s(S'blue'
p1435
S'obscurity'
p1436
tp1437
I0
s(S'empty'
p1438
S'talk'
p1439
tp1440
I0
s(S'heavy'
p1441
S'silence'
p1442
tp1443
I0
s(S'flat'
p1444
S'wage'
p1445
tp1446
I0
s(S'compassionate'
p1447
S'budget'
p1448
tp1449
I0
s(S'living'
p1450
S'wind'
p1451
tp1452
I0
s(S'lower'
p1453
S'productivity'
p1454
tp1455
I0
s(S'crushing'
p1456
S'effect'
p1457
tp1458
I0
s(S'shattered'
p1459
S'life'
p1460
tp1461
I0
s(S'heavenly'
p1462
S'smell'
p1463
tp1464
I2
s(S'endemic'
p1465
S'poverty'
p1466
tp1467
I0
s(S'growing'
p1468
S'strife'
p1469
tp1470
I0
s(S'mighty'
p1471
S'wind'
p1472
tp1473
I0
s(S'political'
p1474
S'posturing'
p1475
tp1476
I0
s(S'untrammeled'
p1477
S'beauty'
p1478
tp1479
I0
s(S'deflated'
p1480
S'emotions'
p1481
tp1482
I0
s(S'warm'
p1483
S'smile'
p1484
tp1485
I0
s(S'unblemished'
p1486
S'reputation'
p1487
tp1488
I1
s(S'young'
p1489
S'money'
p1490
tp1491
I0
s(S'dead'
p1492
S'money'
p1493
tp1494
I0
s(S'unhappy'
p1495
S'truth'
p1496
tp1497
I0
s(S'embedded'
p1498
S'inequality'
p1499
tp1500
I0
s(S'desperate'
p1501
S'edge'
p1502
tp1503
I4
s(S'financial'
p1504
S'bondage'
p1505
tp1506
I0
s(S'paralyzing'
p1507
S'love'
p1508
tp1509
I0
s(S'fierce'
p1510
S'competition'
p1511
tp1512
I6
s(S'brutal'
p1513
S'weather'
p1514
tp1515
I1
s(S'weary'
p1516
S'land'
p1517
tp1518
I0
s(S'thriving'
p1519
S'democracy'
p1520
tp1521
I0
s(S'wretched'
p1522
S'place'
p1523
tp1524
I5
s(S'stagnant'
p1525
S'wage'
p1526
tp1527
I0
s(S'low'
p1528
S'return'
p1529
tp1530
I0
s(S'civic'
p1531
S'fabric'
p1532
tp1533
I0
s(S'bright'
p1534
S'future'
p1535
tp1536
I0
s(S'poisoned'
p1537
S'silence'
p1538
tp1539
I0
s(S'charming'
p1540
S'house'
p1541
tp1542
I0
s(S'stale'
p1543
S'idea'
p1544
tp1545
I0
s(S'shallow'
p1546
S'character'
p1547
tp1548
I0
s(S'emotional'
p1549
S'isolation'
p1550
tp1551
I0
s(S'wilted'
p1552
S'passion'
p1553
tp1554
I0
s(S'fading'
p1555
S'voice'
p1556
tp1557
I0
s(S'bitter'
p1558
S'tears'
p1559
tp1560
I0
s(S'brighter'
p1561
S'future'
p1562
tp1563
I5
s(S'bright'
p1564
S'smile'
p1565
tp1566
I0
s(S'sleepy'
p1567
S'town'
p1568
tp1569
I8
s(S'biting'
p1570
S'look'
p1571
tp1572
I0
s(S'lazy'
p1573
S'afternoon'
p1574
tp1575
I5
s(S'economic'
p1576
S'laggard'
p1577
tp1578
I0
s(S'unquenchable'
p1579
S'love'
p1580
tp1581
I0
s(S'fierce'
p1582
S'concentration'
p1583
tp1584
I12
s(S'bright'
p1585
S'thought'
p1586
tp1587
I0
s(S'screaming'
p1588
S'poverty'
p1589
tp1590
I0
s(S'dull'
p1591
S'play'
p1592
tp1593
I0
s(S'transparent'
p1594
S'manner'
p1595
tp1596
I0
s(S'deep'
p1597
S'analysis'
p1598
tp1599
I0
s(S'kindred'
p1600
S'spirit'
p1601
tp1602
I0
s(S'raw'
p1603
S'wilderness'
p1604
tp1605
I0
s(S'economic'
p1606
S'ruin'
p1607
tp1608
I4
s(S'cold'
p1609
S'appearance'
p1610
tp1611
I0
s(S'high'
p1612
S'tax'
p1613
tp1614
I0
s(S'stormy'
p1615
S'future'
p1616
tp1617
I0
s(S'growing'
p1618
S'recognition'
p1619
tp1620
I0
s(S'crushing'
p1621
S'sorrow'
p1622
tp1623
I0
s(S'thin'
p1624
S'air'
p1625
tp1626
I276
s(S'hard'
p1627
S'fact'
p1628
tp1629
I0
s(S'deep'
p1630
S'question'
p1631
tp1632
I0
s(S'paralyzing'
p1633
S'headache'
p1634
tp1635
I0
s(S'intense'
p1636
S'gaze'
p1637
tp1638
I0
s(S'thick'
p1639
S'silence'
p1640
tp1641
I10
s(S'gentle'
p1642
S'smile'
p1643
tp1644
I49
s(S'growing'
p1645
S'shortage'
p1646
tp1647
I0
s(S'gentle'
p1648
S'soul'
p1649
tp1650
I8
s(S'crushing'
p1651
S'humiliation'
p1652
tp1653
I0
s(S'blind'
p1654
S'faith'
p1655
tp1656
I0
s(S'highest'
p1657
S'consideration'
p1658
tp1659
I0
s(S'shattered'
p1660
S'dreams'
p1661
tp1662
I0
s(S'frozen'
p1663
S'time'
p1664
tp1665
I0
s(S'criminal'
p1666
S'path'
p1667
tp1668
I0
s(S'ruined'
p1669
S'economy'
p1670
tp1671
I0
s(S'economic'
p1672
S'recovery'
p1673
tp1674
I4
s(S'cold'
p1675
S'justice'
p1676
tp1677
I0
s(S'wailing'
p1678
S'wind'
p1679
tp1680
I0
s(S'paralyzing'
p1681
S'poverty'
p1682
tp1683
I0
s(S'unbending'
p1684
S'loyalty'
p1685
tp1686
I0
s(S'fierce'
p1687
S'lightening'
p1688
tp1689
I0
s(S'epidemic'
p1690
S'poverty'
p1691
tp1692
I0
s(S'economic'
p1693
S'decline'
p1694
tp1695
I2
s(S'quiet'
p1696
S'determination'
p1697
tp1698
I0
s(S'deflated'
p1699
S'meaning'
p1700
tp1701
I0
s(S'social'
p1702
S'disease'
p1703
tp1704
I8
s(S'solid'
p1705
S'character'
p1706
tp1707
I0
s(S'rich'
p1708
S'history'
p1709
tp1710
I0
s(S'ecological'
p1711
S'collapse'
p1712
tp1713
I0
s(S'sunny'
p1714
S'smile'
p1715
tp1716
I18
s(S'economic'
p1717
S'collapse'
p1718
tp1719
I6
s(S'crushing'
p1720
S'poverty'
p1721
tp1722
I1
s(S'fast'
p1723
S'money'
p1724
tp1725
I0
s(S'lost'
p1726
S'empire'
p1727
tp1728
I0
s(S'transparent'
p1729
S'thought'
p1730
tp1731
I0
s(S'spreading'
p1732
S'poverty'
p1733
tp1734
I0
s(S'stratospheric'
p1735
S'inflation'
p1736
tp1737
I0
s(S'stable'
p1738
S'environment'
p1739
tp1740
I0
s(S'stagnant'
p1741
S'life'
p1742
tp1743
I1
s(S'violent'
p1744
S'neighborhood'
p1745
tp1746
I0
s(S'low'
p1747
S'productivity'
p1748
tp1749
I0
s(S'bitter'
p1750
S'cold'
p1751
tp1752
I0
s(S'fierce'
p1753
S'makeup'
p1754
tp1755
I0
s(S'cosmic'
p1756
S'dance'
p1757
tp1758
I4
s(S'fierce'
p1759
S'gaze'
p1760
tp1761
I12
s(S'blind'
p1762
S'justice'
p1763
tp1764
I0
s(S'bushy'
p1765
S'eyebrows'
p1766
tp1767
I1
s(S'mind-numbing'
p1768
S'poverty'
p1769
tp1770
I0
s(S'soft'
p1771
S'light'
p1772
tp1773
I64
s(S'shadowy'
p1774
S'character'
p1775
tp1776
I0
s(S'isolated'
p1777
S'wilderness'
p1778
tp1779
I0
s(S'crushing'
p1780
S'misery'
p1781
tp1782
I0
s(S'cloudy'
p1783
S'prospect'
p1784
tp1785
I0
s(S'crisscrossed'
p1786
S'chaos'
p1787
tp1788
I0
s(S'mighty'
p1789
S'darkness'
p1790
tp1791
I0
s(S'economic'
p1792
S'tool'
p1793
tp1794
I0
s(S'transparent'
p1795
S'strategy'
p1796
tp1797
I0
s(S'sizzling'
p1798
S'show'
p1799
tp1800
I0
s(S'fiscal'
p1801
S'hole'
p1802
tp1803
I0
s(S'broken'
p1804
S'oath'
p1805
tp1806
I0
s(S'rising'
p1807
S'population'
p1808
tp1809
I0
s(S'sober'
p1810
S'thought'
p1811
tp1812
I0
s(S'fierce'
p1813
S'look'
p1814
tp1815
I18
s(S'elegant'
p1816
S'simplicity'
p1817
tp1818
I6
s(S'uncorrupted'
p1819
S'spirit'
p1820
tp1821
I0
s(S'deep'
p1822
S'fear'
p1823
tp1824
I1
s(S'dark'
p1825
S'times'
p1826
tp1827
I0
s(S'corporate'
p1828
S'pie'
p1829
tp1830
I0
s(S'green'
p1831
S'technology'
p1832
tp1833
I0
s(S'strong'
p1834
S'growth'
p1835
tp1836
I0
s(S'huge'
p1837
S'ego'
p1838
tp1839
I1
s(S'strong'
p1840
S'spirit'
p1841
tp1842
I0
s(S'merciless'
p1843
S'combination'
p1844
tp1845
I0
s(S'broken'
p1846
S'trust'
p1847
tp1848
I0
s(S'human'
p1849
S'capital'
p1850
tp1851
I0
s(S'filthy'
p1852
S'thoughts'
p1853
tp1854
I2
s(S'all-consuming'
p1855
S'passion'
p1856
tp1857
I1
s(S'insane'
p1858
S'wealth'
p1859
tp1860
I0
s(S'expanded'
p1861
S'opportunity'
p1862
tp1863
I0
s(S'weak'
p1864
S'economy'
p1865
tp1866
I2
s(S'expanding'
p1867
S'demand'
p1868
tp1869
I0
s(S'social'
p1870
S'gulf'
p1871
tp1872
I2
s(S'paralyzing'
p1873
S'cold'
p1874
tp1875
I0
s(S'deflated'
p1876
S'pride'
p1877
tp1878
I0
s(S'ragged'
p1879
S'appearance'
p1880
tp1881
I0
s(S'backward'
p1882
S'tradition'
p1883
tp1884
I0
s(S'rotten'
p1885
S'soul'
p1886
tp1887
I3
s(S'high'
p1888
S'standard'
p1889
tp1890
I0
s(S'heavy'
p1891
S'poverty'
p1892
tp1893
I0
s(S'hollow'
p1894
S'sound'
p1895
tp1896
I1
s(S'yawning'
p1897
S'gap'
p1898
tp1899
I1
s(S'sweet'
p1900
S'person'
p1901
tp1902
I0
s(S'economic'
p1903
S'muscle'
p1904
tp1905
I0
s(S'social'
p1906
S'life'
p1907
tp1908
I194
s(S'reputational'
p1909
S'capital'
p1910
tp1911
I0
s(S'economic'
p1912
S'battle'
p1913
tp1914
I0
s(S'deserted'
p1915
S'relationships'
p1916
tp1917
I0
s(S'religious'
p1918
S'murk'
p1919
tp1920
I0
s(S'social'
p1921
S'net'
p1922
tp1923
I0
s(S'hollow'
p1924
S'civilization'
p1925
tp1926
I0
s(S'golden'
p1927
S'age'
p1928
tp1929
I0
s(S'dirty'
p1930
S'deeds'
p1931
tp1932
I0
s(S'blind'
p1933
S'elite'
p1934
tp1935
I0
s(S'bloated'
p1936
S'spending'
p1937
tp1938
I0
s(S'shining'
p1939
S'memories'
p1940
tp1941
I0
s(S'breathtaking'
p1942
S'view'
p1943
tp1944
I12
s(S'cultural'
p1945
S'divide'
p1946
tp1947
I2
s(S'deflated'
p1948
S'joke'
p1949
tp1950
I0
s(S'empty'
p1951
S'conversation'
p1952
tp1953
I0
s(S'quiet'
p1954
S'desperation'
p1955
tp1956
I0
s(S'luminous'
p1957
S'smile'
p1958
tp1959
I3
s(S'injured'
p1960
S'self-esteem'
p1961
tp1962
I0
s(S'unforgiving'
p1963
S'heights'
p1964
tp1965
I0
s(S'uncharted'
p1966
S'wilderness'
p1967
tp1968
I0
s(S'sleepy'
p1969
S'village'
p1970
tp1971
I5
s(S'crippling'
p1972
S'taxation'
p1973
tp1974
I0
s(S'wild'
p1975
S'ride'
p1976
tp1977
I1
s(S'economic'
p1978
S'tapestry'
p1979
tp1980
I0
s(S'delicious'
p1981
S'agony'
p1982
tp1983
I0
s(S'ancient'
p1984
S'face'
p1985
tp1986
I1
s(S'lazy'
p1987
S'day'
p1988
tp1989
I0
s(S'inflammatory'
p1990
S'discussion'
p1991
tp1992
I0
s(S'broken'
p1993
S'hope'
p1994
tp1995
I0
s(S'shallow'
p1996
S'faith'
p1997
tp1998
I0
s(S'punitive'
p1999
S'taxation'
p2000
tp2001
I0
s(S'stagnant'
p2002
S'technology'
p2003
tp2004
I0
s(S'ethnic'
p2005
S'cleansing'
p2006
tp2007
I19
s(S'inescapable'
p2008
S'solitude'
p2009
tp2010
I0
s(S'dark'
p2011
S'passion'
p2012
tp2013
I0
s(S'mighty'
p2014
S'stillness'
p2015
tp2016
I0
s(S'thick'
p2017
S'wilderness'
p2018
tp2019
I1
s(S'hypnotic'
p2020
S'fascination'
p2021
tp2022
I2
s(S'golden'
p2023
S'words'
p2024
tp2025
I0
s(S'frowning'
p2026
S'clouds'
p2027
tp2028
I0
s(S'widening'
p2029
S'inequality'
p2030
tp2031
I0
s(S'commercial'
p2032
S'hub'
p2033
tp2034
I0
s(S'opaque'
p2035
S'politics'
p2036
tp2037
I0
s(S'hope-sapping'
p2038
S'poverty'
p2039
tp2040
I0
s(S'feeble'
p2041
S'memory'
p2042
tp2043
I0
s(S'fragile'
p2044
S'health'
p2045
tp2046
I6
s(S'nervous'
p2047
S'breakdown'
p2048
tp2049
I135
s(S'punishing'
p2050
S'storm'
p2051
tp2052
I0
s(S'brilliant'
p2053
S'thought'
p2054
tp2055
I5
s(S'pin-drop'
p2056
S'silence'
p2057
tp2058
I0
s(S'stealth'
p2059
S'taxation'
p2060
tp2061
I0
s(S'untamed'
p2062
S'splendor'
p2063
tp2064
I0
s(S'filthy'
p2065
S'man'
p2066
tp2067
I3
s(S'heavier'
p2068
S'debt'
p2069
tp2070
I0
s(S'kindred'
p2071
S'soul'
p2072
tp2073
I0
s(S'financial'
p2074
S'squeeze'
p2075
tp2076
I0
s(S'unquenchable'
p2077
S'desire'
p2078
tp2079
I0
s(S'deep'
p2080
S'faith'
p2081
tp2082
I0
s(S'weary'
p2083
S'soul'
p2084
tp2085
I0
s(S'growing'
p2086
S'demand'
p2087
tp2088
I0
s(S'green'
p2089
S'job'
p2090
tp2091
I0
s(S'bottled'
p2092
S'passion'
p2093
tp2094
I0
s(S'sweet'
p2095
S'looks'
p2096
tp2097
I0
s(S'living'
p2098
S'history'
p2099
tp2100
I0
s(S'bitter'
p2101
S'winter'
p2102
tp2103
I0
s(S'fierce'
p2104
S'wind'
p2105
tp2106
I11
s(S'lost'
p2107
S'skill'
p2108
tp2109
I0
s(S'fresh'
p2110
S'start'
p2111
tp2112
I94
s(S'touchy'
p2113
S'ego'
p2114
tp2115
I0
s(S'deep'
p2116
S'respect'
p2117
tp2118
I2
s(S'earth-shaking'
p2119
S'discovery'
p2120
tp2121
I1
s(S'quite'
p2122
S'stones'
p2123
tp2124
I0
s(S'lower'
p2125
S'rating'
p2126
tp2127
I0
s(S'rotten'
p2128
S'ethics'
p2129
tp2130
I0
s(S'poor'
p2131
S'imagination'
p2132
tp2133
I0
s(S'financial'
p2134
S'meltdown'
p2135
tp2136
I0
s(S'crushing'
p2137
S'debt'
p2138
tp2139
I1
s(S'cut-throat'
p2140
S'competition'
p2141
tp2142
I0
s(S'economic'
p2143
S'field'
p2144
tp2145
I0
s(S'dehumanizing'
p2146
S'poverty'
p2147
tp2148
I0
s(S'social'
p2149
S'support'
p2150
tp2151
I0
s(S'toxic'
p2152
S'conversation'
p2153
tp2154
I0
s(S'filthy'
p2155
S'money'
p2156
tp2157
I3
s(S'gentle'
p2158
S'dentistry'
p2159
tp2160
I0
s(S'strong'
p2161
S'character'
p2162
tp2163
I0
s(S'weaker'
p2164
S'economy'
p2165
tp2166
I0
s(S'unbalanced'
p2167
S'budget'
p2168
tp2169
I0
s(S'high'
p2170
S'rent'
p2171
tp2172
I0
s(S'robust'
p2173
S'middle-class'
p2174
tp2175
I0
s(S'transparent'
p2176
S'policy'
p2177
tp2178
I0
s(S'deep'
p2179
S'roar'
p2180
tp2181
I2
s(S'weary'
p2182
S'rocks'
p2183
tp2184
I0
s(S'golden'
p2185
S'afternoon'
p2186
tp2187
I0
s(S'broken'
p2188
S'relationship'
p2189
tp2190
I0
s(S'financial'
p2191
S'barrier'
p2192
tp2193
I0
s(S'restless'
p2194
S'water'
p2195
tp2196
I2
s(S'dead'
p2197
S'silence'
p2198
tp2199
I0
s(S'entrenched'
p2200
S'scientists'
p2201
tp2202
I0
s(S'weeping'
p2203
S'tree'
p2204
tp2205
I0
s(S'untamed'
p2206
S'wilderness'
p2207
tp2208
I2
s(S'fractured'
p2209
S'life'
p2210
tp2211
I0
s(S'social'
p2212
S'trap'
p2213
tp2214
I0
s(S'ghostly'
p2215
S'shadows'
p2216
tp2217
I5
s(S'high'
p2218
S'unemployment'
p2219
tp2220
I0
s(S'economic'
p2221
S'impact'
p2222
tp2223
I4
s(S'wild'
p2224
S'move'
p2225
tp2226
I0
s(S'strong'
p2227
S'class'
p2228
tp2229
I0
s(S'academic'
p2230
S'gap'
p2231
tp2232
I0
s(S'burning'
p2233
S'love'
p2234
tp2235
I0
s(S'tortured'
p2236
S'soul'
p2237
tp2238
I0
s(S'shallow'
p2239
S'thoughts'
p2240
tp2241
I2
s(S'naked'
p2242
S'eye'
p2243
tp2244
I60
s(S'strong'
p2245
S'middle-class'
p2246
tp2247
I0
s(S'unshakeable'
p2248
S'belief'
p2249
tp2250
I0
s(S'empty'
p2251
S'head'
p2252
tp2253
I0
s(S'soft'
p2254
S'sky'
p2255
tp2256
I2
s(S'clouded'
p2257
S'face'
p2258
tp2259
I0
s(S'strong'
p2260
S'leadership'
p2261
tp2262
I0
s(S'honeycomb'
p2263
S'tax'
p2264
tp2265
I0
s(S'blood'
p2266
S'money'
p2267
tp2268
I0
s(S'thick'
p2269
S'darkness'
p2270
tp2271
I18
s(S'political'
p2272
S'sphere'
p2273
tp2274
I0
s(S'growing'
p2275
S'threat'
p2276
tp2277
I0
s(S'tailored'
p2278
S'assistance'
p2279
tp2280
I0
s(S'haughty'
p2281
S'eyes'
p2282
tp2283
I3
s(S'homeless'
p2284
S'wind'
p2285
tp2286
I0
s(S'crushing'
p2287
S'hunger'
p2288
tp2289
I0
s(S'unforgiving'
p2290
S'era'
p2291
tp2292
I0
s(S'transparent'
p2293
S'process'
p2294
tp2295
I0
s(S'opaque'
p2296
S'policy'
p2297
tp2298
I0
s(S'inescapable'
p2299
S'poverty'
p2300
tp2301
I0
s(S'shadowy'
p2302
S'conqueror'
p2303
tp2304
I0
s(S'swelling'
p2305
S'poverty'
p2306
tp2307
I0
s(S'crippling'
p2308
S'awkwardness'
p2309
tp2310
I0
s(S'growing'
p2311
S'number'
p2312
tp2313
I0
s(S'social'
p2314
S'apathy'
p2315
tp2316
I0
s(S'leading'
p2317
S'reason'
p2318
tp2319
I0
s(S'lopsided'
p2320
S'opinion'
p2321
tp2322
I0
s(S'stagnating'
p2323
S'economy'
p2324
tp2325
I0
s(S'clear'
p2326
S'statement'
p2327
tp2328
I0
s(S'ageless'
p2329
S'rhythms'
p2330
tp2331
I0
s(S'bare'
p2332
S'feet'
p2333
tp2334
I896
s(S'silent'
p2335
S'grave'
p2336
tp2337
I1
s(S'veiled'
p2338
S'sun'
p2339
tp2340
I0
s(S'flowery'
p2341
S'language'
p2342
tp2343
I1
s(S'deep-rooted'
p2344
S'tradition'
p2345
tp2346
I0
s(S'unhealthy'
p2347
S'attitude'
p2348
tp2349
I0
s(S'ancient'
p2350
S'heart'
p2351
tp2352
I0
s(S'soft'
p2353
S'money'
p2354
tp2355
I7
s(S'stale'
p2356
S'workplace'
p2357
tp2358
I0
s(S'biting'
p2359
S'cold'
p2360
tp2361
I2
s(S'unquenchable'
p2362
S'enthusiasm'
p2363
tp2364
I0
s(S'booming'
p2365
S'industry'
p2366
tp2367
I2
s(S'fiery'
p2368
S'temper'
p2369
tp2370
I4
s(S'unforgiving'
p2371
S'place'
p2372
tp2373
I0
s(S'enlightening'
p2374
S'conversation'
p2375
tp2376
I0
s(S'poisonous'
p2377
S'words'
p2378
tp2379
I1
s(S'educational'
p2380
S'field'
p2381
tp2382
I1
s(S'smoky'
p2383
S'eyes'
p2384
tp2385
I9
s(S'flaky'
p2386
S'memory'
p2387
tp2388
I0
s(S'struggling'
p2389
S'economy'
p2390
tp2391
I0
s(S'old'
p2392
S'money'
p2393
tp2394
I0
s(S'social'
p2395
S'kitchen'
p2396
tp2397
I0
s(S'concentrated'
p2398
S'poverty'
p2399
tp2400
I0
s(S'anxious'
p2401
S'eyes'
p2402
tp2403
I17
s(S'solid'
p2404
S'personality'
p2405
tp2406
I0
s(S'raw'
p2407
S'plan'
p2408
tp2409
I0
s(S'hairy'
p2410
S'subject'
p2411
tp2412
I0
s(S'turbulent'
p2413
S'romance'
p2414
tp2415
I0
s(S'broken'
p2416
S'melody'
p2417
tp2418
I0
s(S'hard'
p2419
S'poverty'
p2420
tp2421
I0
s(S'silent'
p2422
S'scream'
p2423
tp2424
I29
s(S'bitter'
p2425
S'legacy'
p2426
tp2427
I0
s(S'golden'
p2428
S'river'
p2429
tp2430
I0
s(S'buffeting'
p2431
S'wind'
p2432
tp2433
I2
s(S'hypnotic'
p2434
S'sands'
p2435
tp2436
I0
s(S'democratic'
p2437
S'vitality'
p2438
tp2439
I0
s(S'intense'
p2440
S'encounter'
p2441
tp2442
I0
s(S'deep'
p2443
S'stillness'
p2444
tp2445
I0
s(S'lonely'
p2446
S'beaches'
p2447
tp2448
I0
s(S'deep-rooted'
p2449
S'belief'
p2450
tp2451
I0
s(S'filthy'
p2452
S'story'
p2453
tp2454
I0
s(S'unquenchable'
p2455
S'joy'
p2456
tp2457
I0
s(S'financial'
p2458
S'burden'
p2459
tp2460
I0
s(S'silent'
p2461
S'stones'
p2462
tp2463
I1
s(S'ancient'
p2464
S'pages'
p2465
tp2466
I0
s(S'consuming'
p2467
S'darkness'
p2468
tp2469
I0
s(S'tainted'
p2470
S'reputation'
p2471
tp2472
I0
s(S'social'
p2473
S'engineering'
p2474
tp2475
I8
s(S'deep'
p2476
S'solitude'
p2477
tp2478
I0
s(S'brilliant'
p2479
S'idea'
p2480
tp2481
I66
s(S'deep'
p2482
S'autumn'
p2483
tp2484
I0
s(S'numbing'
p2485
S'sameness'
p2486
tp2487
I0
s(S'big'
p2488
S'weakness'
p2489
tp2490
I0
s(S'newfound'
p2491
S'growth'
p2492
tp2493
I0
s(S'lower'
p2494
S'wage'
p2495
tp2496
I0
s(S'strained'
p2497
S'imagination'
p2498
tp2499
I0
s(S'deep'
p2500
S'gratitude'
p2501
tp2502
I0
s(S'naked'
p2503
S'face'
p2504
tp2505
I12
s(S'acute'
p2506
S'ignorance'
p2507
tp2508
I0
s(S'dynamic'
p2509
S'company'
p2510
tp2511
I0
s(S'strong'
p2512
S'statement'
p2513
tp2514
I0
s(S'high'
p2515
S'price'
p2516
tp2517
I0
s(S'heavy'
p2518
S'reliance'
p2519
tp2520
I0
s(S'wild'
p2521
S'dream'
p2522
tp2523
I0
s(S'choked'
p2524
S'gullies'
p2525
tp2526
I0
s(S'thriving'
p2527
S'family'
p2528
tp2529
I0
s(S'thriving'
p2530
S'middle-class'
p2531
tp2532
I0
s(S'mesmerizing'
p2533
S'gaze'
p2534
tp2535
I0
s(S'lonely'
p2536
S'planet'
p2537
tp2538
I9
s(S'deep'
p2539
S'poverty'
p2540
tp2541
I0
s(S'deepening'
p2542
S'shadows'
p2543
tp2544
I2
s(S'systemic'
p2545
S'poverty'
p2546
tp2547
I0
s(S'dark'
p2548
S'ages'
p2549
tp2550
I1
s(S'entrenched'
p2551
S'poverty'
p2552
tp2553
I0
s(S'thriving'
p2554
S'economy'
p2555
tp2556
I0
s(S'corrosive'
p2557
S'corruption'
p2558
tp2559
I0
s(S'higher'
p2560
S'return'
p2561
tp2562
I1
s(S'crying'
p2563
S'tree'
p2564
tp2565
I0
s(S'unforgiving'
p2566
S'sunshine'
p2567
tp2568
I0
s(S'weary'
p2569
S'world'
p2570
tp2571
I3
s(S'higher'
p2572
S'standard'
p2573
tp2574
I7
s(S'seductive'
p2575
S'place'
p2576
tp2577
I0
s(S'dirty'
p2578
S'money'
p2579
tp2580
I0
s(S'silver'
p2581
S'spring'
p2582
tp2583
I0
s(S'forsaken'
p2584
S'hope'
p2585
tp2586
I0
s(S'economic'
p2587
S'revitalization'
p2588
tp2589
I0
s(S'wild'
p2590
S'solitude'
p2591
tp2592
I0
s(S'filthy'
p2593
S'character'
p2594
tp2595
I0
s(S'frozen'
p2596
S'face'
p2597
tp2598
I0
s(S'fuzzy'
p2599
S'memory'
p2600
tp2601
I1
s(S'fierce'
p2602
S'sun'
p2603
tp2604
I5
s(S'draining'
p2605
S'expense'
p2606
tp2607
I0
s(S'sensitive'
p2608
S'ego'
p2609
tp2610
I1
s(S'social'
p2611
S'network'
p2612
tp2613
I5
s(S'healthy'
p2614
S'class'
p2615
tp2616
I0
s(S'rising'
p2617
S'cost'
p2618
tp2619
I0
s(S'healthy'
p2620
S'relationship'
p2621
tp2622
I6
s(S'economic'
p2623
S'rise'
p2624
tp2625
I0
s(S'dissolved'
p2626
S'time'
p2627
tp2628
I0
s(S'ghostly'
p2629
S'silence'
p2630
tp2631
I1
s(S'raw'
p2632
S'intelligence'
p2633
tp2634
I4
s(S'wild'
p2635
S'imagination'
p2636
tp2637
I0
s(S'rich'
p2638
S'imagination'
p2639
tp2640
I0
s(S'glowing'
p2641
S'eyes'
p2642
tp2643
I0
s(S'pernicious'
p2644
S'poverty'
p2645
tp2646
I0
s(S'ghostly'
p2647
S'reflections'
p2648
tp2649
I3
s(S'slim'
p2650
S'chance'
p2651
tp2652
I0
s.