ccollections
defaultdict
p0
(c__builtin__
int
p1
tp2
Rp3
(S'brutal'
p4
S'honesty'
p5
tp6
I8
s(S'fading'
p7
S'life'
p8
tp9
I1
s(S'poisonous'
p10
S'look'
p11
tp12
I3
s(S'stony'
p13
S'face'
p14
tp15
I15
s(S'bruised'
p16
S'ego'
p17
tp18
I3
s(S'lost'
p19
S'history'
p20
tp21
I1
s(S'growing'
p22
S'need'
p23
tp24
I7
s(S'burning'
p25
S'question'
p26
tp27
I10
s(S'mischievous'
p28
S'eyes'
p29
tp30
I6
s(S'hard'
p31
S'money'
p32
tp33
I3
s(S'fierce'
p34
S'gaze'
p35
tp36
I12
s(S'broken'
p37
S'home'
p38
tp39
I11
s(S'raw'
p40
S'idea'
p41
tp42
I1
s(S'high'
p43
S'cost'
p44
tp45
I14
s(S'cold'
p46
S'gaze'
p47
tp48
I5
s(S'golden'
p49
S'boy'
p50
tp51
I34
s(S'bushy'
p52
S'eyebrows'
p53
tp54
I68
s(S'raw'
p55
S'frontier'
p56
tp57
I1
s(S'burning'
p58
S'desire'
p59
tp60
I25
s(S'gentle'
p61
S'eyes'
p62
tp63
I11
s(S'healthy'
p64
S'democracy'
p65
tp66
I1
s(S'political'
p67
S'life'
p68
tp69
I15
s(S'rude'
p70
S'awakening'
p71
tp72
I14
s(S'deep'
p73
S'thought'
p74
tp75
I36
s(S'sweet'
p76
S'air'
p77
tp78
I17
s(S'feeding'
p79
S'frenzy'
p80
tp81
I40
s(S'silent'
p82
S'world'
p83
tp84
I16
s(S'delicate'
p85
S'dance'
p86
tp87
I4
s(S'socialist'
p88
S'paradise'
p89
tp90
I3
s(S'heated'
p91
S'debate'
p92
tp93
I16
s(S'fading'
p94
S'moments'
p95
tp96
I1
s(S'loud'
p97
S'suit'
p98
tp99
I3
s(S'bitter'
p100
S'thought'
p101
tp102
I6
s(S'economic'
p103
S'climate'
p104
tp105
I4
s(S'liquid'
p106
S'eyes'
p107
tp108
I31
s(S'bubbly'
p109
S'personality'
p110
tp111
I2
s(S'crisp'
p112
S'afternoon'
p113
tp114
I1
s(S'penetrating'
p115
S'look'
p116
tp117
I21
s(S'fleeting'
p118
S'memories'
p119
tp120
I3
s(S'heavy'
p121
S'air'
p122
tp123
I51
s(S'nameless'
p124
S'faces'
p125
tp126
I3
s(S'ecological'
p127
S'footprint'
p128
tp129
I1
s(S'empty'
p130
S'life'
p131
tp132
I7
s(S'higher'
p133
S'tax'
p134
tp135
I1
s(S'quiet'
p136
S'determination'
p137
tp138
I4
s(S'modern'
p139
S'mind'
p140
tp141
I3
s(S'social'
p142
S'disease'
p143
tp144
I8
s(S'hungry'
p145
S'eyes'
p146
tp147
I26
s(S'crazy'
p148
S'money'
p149
tp150
I1
s(S'mad'
p151
S'money'
p152
tp153
I12
s(S'burning'
p154
S'issue'
p155
tp156
I2
s(S'lopsided'
p157
S'ratio'
p158
tp159
I1
s(S'turbulent'
p160
S'history'
p161
tp162
I2
s(S'golden'
p163
S'opportunity'
p164
tp165
I34
s(S'elegant'
p166
S'solution'
p167
tp168
I11
s(S'economic'
p169
S'ladder'
p170
tp171
I3
s(S'unquenchable'
p172
S'flame'
p173
tp174
I1
s(S'flaring'
p175
S'mustache'
p176
tp177
I1
s(S'economic'
p178
S'growth'
p179
tp180
I10
s(S'deep'
p181
S'winter'
p182
tp183
I12
s(S'strong'
p184
S'will'
p185
tp186
I21
s(S'faint'
p187
S'memory'
p188
tp189
I11
s(S'clean'
p190
S'energy'
p191
tp192
I3
s(S'high'
p193
S'unemployment'
p194
tp195
I2
s(S'glowing'
p196
S'review'
p197
tp198
I2
s(S'empty'
p199
S'mind'
p200
tp201
I4
s(S'overheating'
p202
S'economy'
p203
tp204
I1
s(S'tortured'
p205
S'earth'
p206
tp207
I1
s(S'shattered'
p208
S'dreams'
p209
tp210
I4
s(S'restless'
p211
S'soul'
p212
tp213
I6
s(S'wretched'
p214
S'city'
p215
tp216
I3
s(S'heavenly'
p217
S'smile'
p218
tp219
I4
s(S'stiff'
p220
S'wind'
p221
tp222
I31
s(S'dim'
p223
S'beginnings'
p224
tp225
I1
s(S'unstable'
p226
S'life'
p227
tp228
I1
s(S'gentle'
p229
S'ocean'
p230
tp231
I1
s(S'thick'
p232
S'air'
p233
tp234
I43
s(S'lost'
p235
S'freedom'
p236
tp237
I1
s(S'vain'
p238
S'hope'
p239
tp240
I20
s(S'weary'
p241
S'world'
p242
tp243
I3
s(S'silver'
p244
S'spring'
p245
tp246
I9
s(S'thriving'
p247
S'business'
p248
tp249
I18
s(S'gentle'
p250
S'slopes'
p251
tp252
I9
s(S'beaten'
p253
S'path'
p254
tp255
I22
s(S'broken'
p256
S'family'
p257
tp258
I4
s(S'fresh'
p259
S'breeze'
p260
tp261
I14
s(S'growing'
p262
S'gap'
p263
tp264
I1
s(S'mental'
p265
S'breakdown'
p266
tp267
I11
s(S'financial'
p268
S'meltdown'
p269
tp270
I1
s(S'strong'
p271
S'economy'
p272
tp273
I1
s(S'hollow'
p274
S'darkness'
p275
tp276
I2
s(S'fiery'
p277
S'eyes'
p278
tp279
I17
s(S'deep'
p280
S'love'
p281
tp282
I17
s(S'rising'
p283
S'crime'
p284
tp285
I1
s(S'poetic'
p286
S'frenzy'
p287
tp288
I1
s(S'flashy'
p289
S'smile'
p290
tp291
I3
s(S'financial'
p292
S'bubble'
p293
tp294
I1
s(S'deep'
p295
S'silence'
p296
tp297
I27
s(S'charming'
p298
S'dress'
p299
tp300
I1
s(S'ghostly'
p301
S'sound'
p302
tp303
I3
s(S'inflammatory'
p304
S'topic'
p305
tp306
I1
s(S'medical'
p307
S'field'
p308
tp309
I3
s(S'gloomy'
p310
S'mood'
p311
tp312
I2
s(S'burning'
p313
S'passion'
p314
tp315
I4
s(S'faint'
p316
S'impression'
p317
tp318
I3
s(S'economic'
p319
S'strength'
p320
tp321
I3
s(S'political'
p322
S'will'
p323
tp324
I1
s(S'thorny'
p325
S'question'
p326
tp327
I1
s(S'gentle'
p328
S'breeze'
p329
tp330
I72
s(S'heart-stopping'
p331
S'moment'
p332
tp333
I11
s(S'chilling'
p334
S'story'
p335
tp336
I1
s(S'shady'
p337
S'character'
p338
tp339
I10
s(S'fragile'
p340
S'ego'
p341
tp342
I4
s(S'unspeakable'
p343
S'power'
p344
tp345
I1
s(S'social'
p346
S'mobility'
p347
tp348
I5
s(S'cautious'
p349
S'smile'
p350
tp351
I3
s(S'firm'
p352
S'gaze'
p353
tp354
I2
s(S'hollow'
p355
S'victory'
p356
tp357
I5
s(S'broken'
p358
S'heart'
p359
tp360
I128
s(S'sweet'
p361
S'person'
p362
tp363
I2
s(S'sharp'
p364
S'contrast'
p365
tp366
I57
s(S'strong'
p367
S'motivation'
p368
tp369
I3
s(S'growing'
p370
S'economy'
p371
tp372
I2
s(S'spirited'
p373
S'discussion'
p374
tp375
I5
s(S'deep'
p376
S'distress'
p377
tp378
I4
s(S'sweet'
p379
S'life'
p380
tp381
I9
s(S'highest'
p382
S'consideration'
p383
tp384
I1
s(S'golden'
p385
S'moment'
p386
tp387
I8
s(S'blind'
p388
S'love'
p389
tp390
I7
s(S'cosmic'
p391
S'loneliness'
p392
tp393
I1
s(S'fading'
p394
S'sounds'
p395
tp396
I2
s(S'hollow'
p397
S'sound'
p398
tp399
I43
s(S'velvet'
p400
S'skin'
p401
tp402
I5
s(S'deep'
p403
S'trouble'
p404
tp405
I42
s(S'unreadable'
p406
S'face'
p407
tp408
I4
s(S'deep'
p409
S'motivation'
p410
tp411
I1
s(S'growing'
p412
S'passion'
p413
tp414
I1
s(S'celestial'
p415
S'smile'
p416
tp417
I1
s(S'raw'
p418
S'beauty'
p419
tp420
I2
s(S'wide'
p421
S'sky'
p422
tp423
I12
s(S'heated'
p424
S'discussion'
p425
tp426
I23
s(S'debilitating'
p427
S'heat'
p428
tp429
I2
s(S'crippling'
p430
S'fear'
p431
tp432
I3
s(S'naked'
p433
S'truth'
p434
tp435
I6
s(S'fading'
p436
S'memory'
p437
tp438
I12
s(S'social'
p439
S'tension'
p440
tp441
I3
s(S'vicious'
p442
S'cycle'
p443
tp444
I15
s(S'deep'
p445
S'interest'
p446
tp447
I5
s(S'quick'
p448
S'money'
p449
tp450
I8
s(S'open'
p451
S'face'
p452
tp453
I56
s(S'drowsy'
p454
S'heat'
p455
tp456
I2
s(S'social'
p457
S'network'
p458
tp459
I5
s(S'crippling'
p460
S'anxiety'
p461
tp462
I1
s(S'emotional'
p463
S'impact'
p464
tp465
I13
s(S'economic'
p466
S'slump'
p467
tp468
I2
s(S'educational'
p469
S'field'
p470
tp471
I1
s(S'filthy'
p472
S'lucre'
p473
tp474
I6
s(S'wooden'
p475
S'face'
p476
tp477
I2
s(S'delicate'
p478
S'balance'
p479
tp480
I25
s(S'deep'
p481
S'space'
p482
tp483
I132
s(S'steely'
p484
S'eyes'
p485
tp486
I15
s(S'broken'
p487
S'promise'
p488
tp489
I10
s(S'cold'
p490
S'eyes'
p491
tp492
I49
s(S'touchy'
p493
S'subject'
p494
tp495
I10
s(S'vast'
p496
S'wealth'
p497
tp498
I7
s(S'living'
p499
S'legend'
p500
tp501
I12
s(S'stable'
p502
S'family'
p503
tp504
I5
s(S'roaring'
p505
S'engine'
p506
tp507
I3
s(S'promising'
p508
S'future'
p509
tp510
I8
s(S'shining'
p511
S'example'
p512
tp513
I8
s(S'lost'
p514
S'city'
p515
tp516
I50
s(S'drab'
p517
S'existence'
p518
tp519
I1
s(S'metallic'
p520
S'voice'
p521
tp522
I17
s(S'deep'
p523
S'sorrow'
p524
tp525
I13
s(S'penetrating'
p526
S'gaze'
p527
tp528
I18
s(S'spotless'
p529
S'reputation'
p530
tp531
I2
s(S'urban'
p532
S'decay'
p533
tp534
I3
s(S'blissful'
p535
S'ignorance'
p536
tp537
I9
s(S'haunting'
p538
S'awareness'
p539
tp540
I1
s(S'playful'
p541
S'energy'
p542
tp543
I1
s(S'copper'
p544
S'hair'
p545
tp546
I17
s(S'soaring'
p547
S'spirit'
p548
tp549
I1
s(S'rising'
p550
S'rate'
p551
tp552
I1
s(S'bright'
p553
S'idea'
p554
tp555
I50
s(S'mounting'
p556
S'evidence'
p557
tp558
I4
s(S'hard'
p559
S'fact'
p560
tp561
I14
s(S'living'
p562
S'dead'
p563
tp564
I50
s(S'heavy'
p565
S'tax'
p566
tp567
I1
s(S'pressing'
p568
S'need'
p569
tp570
I8
s(S'cultural'
p571
S'barrier'
p572
tp573
I1
s(S'blind'
p574
S'fury'
p575
tp576
I11
s(S'violent'
p577
S'place'
p578
tp579
I5
s(S'dark'
p580
S'thought'
p581
tp582
I7
s(S'mental'
p583
S'baggage'
p584
tp585
I1
s(S'dirty'
p586
S'thoughts'
p587
tp588
I12
s(S'bloated'
p589
S'ego'
p590
tp591
I1
s(S'social'
p592
S'collapse'
p593
tp594
I1
s(S'tortured'
p595
S'landscape'
p596
tp597
I2
s(S'golden'
p598
S'voice'
p599
tp600
I2
s(S'turbulent'
p601
S'times'
p602
tp603
I4
s(S'velvet'
p604
S'voice'
p605
tp606
I5
s(S'social'
p607
S'anxiety'
p608
tp609
I2
s(S'urban'
p610
S'growth'
p611
tp612
I1
s(S'dead'
p613
S'eyes'
p614
tp615
I83
s(S'palpable'
p616
S'energy'
p617
tp618
I2
s(S'icy'
p619
S'eyes'
p620
tp621
I13
s(S'violent'
p622
S'times'
p623
tp624
I5
s(S'shining'
p625
S'future'
p626
tp627
I2
s(S'paralyzing'
p628
S'fear'
p629
tp630
I6
s(S'mesmerizing'
p631
S'voice'
p632
tp633
I2
s(S'unquenchable'
p634
S'desire'
p635
tp636
I3
s(S'blind'
p637
S'hope'
p638
tp639
I2
s(S'fierce'
p640
S'stare'
p641
tp642
I1
s(S'concentrated'
p643
S'effort'
p644
tp645
I9
s(S'low'
p646
S'income'
p647
tp648
I4
s(S'roaring'
p649
S'river'
p650
tp651
I7
s(S'rolling'
p652
S'hills'
p653
tp654
I112
s(S'strong'
p655
S'leadership'
p656
tp657
I2
s(S'lost'
p658
S'hope'
p659
tp660
I34
s(S'sparkling'
p661
S'eyes'
p662
tp663
I30
s(S'enlightened'
p664
S'age'
p665
tp666
I1
s(S'paralyzing'
p667
S'depression'
p668
tp669
I1
s(S'big'
p670
S'ego'
p671
tp672
I2
s(S'bitter'
p673
S'day'
p674
tp675
I1
s(S'glaring'
p676
S'eyes'
p677
tp678
I18
s(S'unquenchable'
p679
S'fire'
p680
tp681
I3
s(S'enormous'
p682
S'ego'
p683
tp684
I3
s(S'emotional'
p685
S'meltdown'
p686
tp687
I2
s(S'lonely'
p688
S'house'
p689
tp690
I9
s(S'flat'
p691
S'tax'
p692
tp693
I2
s(S'crisp'
p694
S'morning'
p695
tp696
I12
s(S'lonely'
p697
S'hill'
p698
tp699
I1
s(S'grinding'
p700
S'poverty'
p701
tp702
I9
s(S'insistent'
p703
S'wind'
p704
tp705
I2
s(S'sweet'
p706
S'dreams'
p707
tp708
I63
s(S'dark'
p709
S'history'
p710
tp711
I3
s(S'unreadable'
p712
S'eyes'
p713
tp714
I5
s(S'blind'
p715
S'obedience'
p716
tp717
I8
s(S'low'
p718
S'price'
p719
tp720
I22
s(S'crippling'
p721
S'poverty'
p722
tp723
I1
s(S'biting'
p724
S'wind'
p725
tp726
I20
s(S'explosive'
p727
S'growth'
p728
tp729
I2
s(S'fierce'
p730
S'competition'
p731
tp732
I6
s(S'friendly'
p733
S'waves'
p734
tp735
I1
s(S'empty'
p736
S'talk'
p737
tp738
I2
s(S'heavy'
p739
S'silence'
p740
tp741
I37
s(S'heated'
p742
S'argument'
p743
tp744
I18
s(S'shattered'
p745
S'life'
p746
tp747
I4
s(S'heavenly'
p748
S'smell'
p749
tp750
I2
s(S'fleeting'
p751
S'moment'
p752
tp753
I46
s(S'mighty'
p754
S'wind'
p755
tp756
I4
s(S'political'
p757
S'posturing'
p758
tp759
I1
s(S'warm'
p760
S'smile'
p761
tp762
I99
s(S'unblemished'
p763
S'reputation'
p764
tp765
I1
s(S'desperate'
p766
S'edge'
p767
tp768
I4
s(S'brutal'
p769
S'weather'
p770
tp771
I1
s(S'wretched'
p772
S'place'
p773
tp774
I5
s(S'bushy'
p775
S'beard'
p776
tp777
I21
s(S'charming'
p778
S'house'
p779
tp780
I4
s(S'fading'
p781
S'voice'
p782
tp783
I3
s(S'bitter'
p784
S'tears'
p785
tp786
I20
s(S'brighter'
p787
S'future'
p788
tp789
I8
s(S'bright'
p790
S'smile'
p791
tp792
I81
s(S'sleepy'
p793
S'town'
p794
tp795
I8
s(S'lazy'
p796
S'afternoon'
p797
tp798
I5
s(S'unquenchable'
p799
S'love'
p800
tp801
I1
s(S'fierce'
p802
S'concentration'
p803
tp804
I12
s(S'bright'
p805
S'thought'
p806
tp807
I5
s(S'dull'
p808
S'play'
p809
tp810
I1
s(S'kindred'
p811
S'spirit'
p812
tp813
I36
s(S'economic'
p814
S'ruin'
p815
tp816
I4
s(S'growing'
p817
S'recognition'
p818
tp819
I3
s(S'crushing'
p820
S'sorrow'
p821
tp822
I1
s(S'thin'
p823
S'air'
p824
tp825
I281
s(S'high'
p826
S'price'
p827
tp828
I53
s(S'deep'
p829
S'question'
p830
tp831
I3
s(S'easy'
p832
S'money'
p833
tp834
I43
s(S'thick'
p835
S'silence'
p836
tp837
I10
s(S'gentle'
p838
S'smile'
p839
tp840
I49
s(S'gentle'
p841
S'soul'
p842
tp843
I8
s(S'luminous'
p844
S'smile'
p845
tp846
I3
s(S'blind'
p847
S'faith'
p848
tp849
I19
s(S'frozen'
p850
S'time'
p851
tp852
I1
s(S'ruined'
p853
S'economy'
p854
tp855
I1
s(S'economic'
p856
S'recovery'
p857
tp858
I4
s(S'wailing'
p859
S'wind'
p860
tp861
I2
s(S'vibrant'
p862
S'economy'
p863
tp864
I2
s(S'economic'
p865
S'decline'
p866
tp867
I2
s(S'rich'
p868
S'history'
p869
tp870
I6
s(S'sunny'
p871
S'smile'
p872
tp873
I18
s(S'economic'
p874
S'collapse'
p875
tp876
I6
s(S'crushing'
p877
S'poverty'
p878
tp879
I2
s(S'fast'
p880
S'money'
p881
tp882
I3
s(S'stable'
p883
S'environment'
p884
tp885
I4
s(S'stagnant'
p886
S'life'
p887
tp888
I1
s(S'bitter'
p889
S'cold'
p890
tp891
I108
s(S'turbulent'
p892
S'time'
p893
tp894
I1
s(S'cosmic'
p895
S'dance'
p896
tp897
I4
s(S'sad'
p898
S'truth'
p899
tp900
I23
s(S'brilliant'
p901
S'thought'
p902
tp903
I5
s(S'brilliant'
p904
S'eyes'
p905
tp906
I18
s(S'soft'
p907
S'light'
p908
tp909
I94
s(S'isolated'
p910
S'wilderness'
p911
tp912
I1
s(S'bright'
p913
S'future'
p914
tp915
I32
s(S'broken'
p916
S'oath'
p917
tp918
I1
s(S'sober'
p919
S'thought'
p920
tp921
I1
s(S'fierce'
p922
S'look'
p923
tp924
I18
s(S'elegant'
p925
S'simplicity'
p926
tp927
I6
s(S'deep'
p928
S'fear'
p929
tp930
I10
s(S'dark'
p931
S'times'
p932
tp933
I14
s(S'huge'
p934
S'ego'
p935
tp936
I1
s(S'strong'
p937
S'spirit'
p938
tp939
I1
s(S'broken'
p940
S'trust'
p941
tp942
I1
s(S'human'
p943
S'capital'
p944
tp945
I2
s(S'filthy'
p946
S'thoughts'
p947
tp948
I2
s(S'all-consuming'
p949
S'passion'
p950
tp951
I1
s(S'expanded'
p952
S'opportunity'
p953
tp954
I1
s(S'weak'
p955
S'economy'
p956
tp957
I2
s(S'paralyzing'
p958
S'cold'
p959
tp960
I2
s(S'dark'
p961
S'ages'
p962
tp963
I71
s(S'lost'
p964
S'touch'
p965
tp966
I91
s(S'rotten'
p967
S'soul'
p968
tp969
I3
s(S'high'
p970
S'standard'
p971
tp972
I10
s(S'yawning'
p973
S'gap'
p974
tp975
I3
s(S'social'
p976
S'life'
p977
tp978
I194
s(S'golden'
p979
S'age'
p980
tp981
I68
s(S'breathtaking'
p982
S'view'
p983
tp984
I12
s(S'cultural'
p985
S'divide'
p986
tp987
I2
s(S'empty'
p988
S'conversation'
p989
tp990
I2
s(S'quiet'
p991
S'desperation'
p992
tp993
I17
s(S'crushing'
p994
S'humiliation'
p995
tp996
I1
s(S'sleepy'
p997
S'village'
p998
tp999
I5
s(S'impenetrable'
p1000
S'face'
p1001
tp1002
I2
s(S'wild'
p1003
S'ride'
p1004
tp1005
I29
s(S'ancient'
p1006
S'face'
p1007
tp1008
I10
s(S'nervous'
p1009
S'breakdown'
p1010
tp1011
I135
s(S'ethnic'
p1012
S'cleansing'
p1013
tp1014
I19
s(S'thick'
p1015
S'wilderness'
p1016
tp1017
I1
s(S'hypnotic'
p1018
S'fascination'
p1019
tp1020
I2
s(S'golden'
p1021
S'words'
p1022
tp1023
I1
s(S'intense'
p1024
S'gaze'
p1025
tp1026
I27
s(S'commercial'
p1027
S'hub'
p1028
tp1029
I1
s(S'fragile'
p1030
S'health'
p1031
tp1032
I6
s(S'blind'
p1033
S'justice'
p1034
tp1035
I10
s(S'pin-drop'
p1036
S'silence'
p1037
tp1038
I2
s(S'filthy'
p1039
S'man'
p1040
tp1041
I3
s(S'kindred'
p1042
S'soul'
p1043
tp1044
I8
s(S'financial'
p1045
S'squeeze'
p1046
tp1047
I3
s(S'deep'
p1048
S'faith'
p1049
tp1050
I4
s(S'growing'
p1051
S'demand'
p1052
tp1053
I1
s(S'green'
p1054
S'job'
p1055
tp1056
I2
s(S'living'
p1057
S'history'
p1058
tp1059
I4
s(S'bitter'
p1060
S'winter'
p1061
tp1062
I11
s(S'fierce'
p1063
S'wind'
p1064
tp1065
I11
s(S'fresh'
p1066
S'start'
p1067
tp1068
I97
s(S'deep'
p1069
S'respect'
p1070
tp1071
I15
s(S'earth-shaking'
p1072
S'discovery'
p1073
tp1074
I1
s(S'dirty'
p1075
S'money'
p1076
tp1077
I18
s(S'crushing'
p1078
S'debt'
p1079
tp1080
I1
s(S'filthy'
p1081
S'money'
p1082
tp1083
I3
s(S'golden'
p1084
S'river'
p1085
tp1086
I1
s(S'strong'
p1087
S'character'
p1088
tp1089
I9
s(S'unbalanced'
p1090
S'budget'
p1091
tp1092
I1
s(S'high'
p1093
S'rent'
p1094
tp1095
I2
s(S'deep'
p1096
S'roar'
p1097
tp1098
I7
s(S'golden'
p1099
S'afternoon'
p1100
tp1101
I7
s(S'broken'
p1102
S'relationship'
p1103
tp1104
I3
s(S'restless'
p1105
S'water'
p1106
tp1107
I2
s(S'dead'
p1108
S'silence'
p1109
tp1110
I107
s(S'untamed'
p1111
S'wilderness'
p1112
tp1113
I2
s(S'fractured'
p1114
S'life'
p1115
tp1116
I1
s(S'ghostly'
p1117
S'shadows'
p1118
tp1119
I5
s(S'economic'
p1120
S'impact'
p1121
tp1122
I4
s(S'burning'
p1123
S'love'
p1124
tp1125
I6
s(S'tortured'
p1126
S'soul'
p1127
tp1128
I15
s(S'shallow'
p1129
S'thoughts'
p1130
tp1131
I2
s(S'naked'
p1132
S'eye'
p1133
tp1134
I60
s(S'unshakeable'
p1135
S'belief'
p1136
tp1137
I1
s(S'empty'
p1138
S'head'
p1139
tp1140
I8
s(S'soft'
p1141
S'sky'
p1142
tp1143
I2
s(S'clouded'
p1144
S'face'
p1145
tp1146
I2
s(S'blood'
p1147
S'money'
p1148
tp1149
I20
s(S'thick'
p1150
S'darkness'
p1151
tp1152
I18
s(S'political'
p1153
S'sphere'
p1154
tp1155
I2
s(S'growing'
p1156
S'threat'
p1157
tp1158
I4
s(S'haughty'
p1159
S'eyes'
p1160
tp1161
I3
s(S'growing'
p1162
S'number'
p1163
tp1164
I22
s(S'leading'
p1165
S'reason'
p1166
tp1167
I1
s(S'clear'
p1168
S'statement'
p1169
tp1170
I8
s(S'restless'
p1171
S'spirit'
p1172
tp1173
I8
s(S'bare'
p1174
S'feet'
p1175
tp1176
I902
s(S'silent'
p1177
S'grave'
p1178
tp1179
I1
s(S'veiled'
p1180
S'sun'
p1181
tp1182
I1
s(S'flowery'
p1183
S'language'
p1184
tp1185
I1
s(S'chronic'
p1186
S'unemployment'
p1187
tp1188
I1
s(S'ancient'
p1189
S'heart'
p1190
tp1191
I1
s(S'soft'
p1192
S'money'
p1193
tp1194
I7
s(S'biting'
p1195
S'cold'
p1196
tp1197
I23
s(S'booming'
p1198
S'industry'
p1199
tp1200
I2
s(S'fiery'
p1201
S'temper'
p1202
tp1203
I4
s(S'poisonous'
p1204
S'words'
p1205
tp1206
I1
s(S'gloomy'
p1207
S'silence'
p1208
tp1209
I9
s(S'smoky'
p1210
S'eyes'
p1211
tp1212
I10
s(S'struggling'
p1213
S'economy'
p1214
tp1215
I1
s(S'old'
p1216
S'money'
p1217
tp1218
I58
s(S'anxious'
p1219
S'eyes'
p1220
tp1221
I17
s(S'silent'
p1222
S'scream'
p1223
tp1224
I29
s(S'bitter'
p1225
S'legacy'
p1226
tp1227
I3
s(S'buffeting'
p1228
S'wind'
p1229
tp1230
I3
s(S'deep'
p1231
S'stillness'
p1232
tp1233
I2
s(S'financial'
p1234
S'burden'
p1235
tp1236
I8
s(S'silent'
p1237
S'stones'
p1238
tp1239
I1
s(S'ancient'
p1240
S'pages'
p1241
tp1242
I1
s(S'social'
p1243
S'engineering'
p1244
tp1245
I8
s(S'brilliant'
p1246
S'idea'
p1247
tp1248
I66
s(S'deep'
p1249
S'autumn'
p1250
tp1251
I2
s(S'numbing'
p1252
S'sameness'
p1253
tp1254
I1
s(S'wrinkled'
p1255
S'smile'
p1256
tp1257
I1
s(S'deep'
p1258
S'gratitude'
p1259
tp1260
I5
s(S'naked'
p1261
S'face'
p1262
tp1263
I12
s(S'strong'
p1264
S'statement'
p1265
tp1266
I3
s(S'wild'
p1267
S'dream'
p1268
tp1269
I1
s(S'thriving'
p1270
S'family'
p1271
tp1272
I1
s(S'mesmerizing'
p1273
S'gaze'
p1274
tp1275
I2
s(S'dirt'
p1276
S'poor'
p1277
tp1278
I12
s(S'lonely'
p1279
S'planet'
p1280
tp1281
I9
s(S'deepening'
p1282
S'shadows'
p1283
tp1284
I8
s(S'ragged'
p1285
S'appearance'
p1286
tp1287
I4
s(S'higher'
p1288
S'return'
p1289
tp1290
I1
s(S'crying'
p1291
S'tree'
p1292
tp1293
I1
s(S'higher'
p1294
S'standard'
p1295
tp1296
I10
s(S'wild'
p1297
S'solitude'
p1298
tp1299
I1
s(S'frozen'
p1300
S'face'
p1301
tp1302
I17
s(S'fuzzy'
p1303
S'memory'
p1304
tp1305
I1
s(S'fierce'
p1306
S'sun'
p1307
tp1308
I5
s(S'sensitive'
p1309
S'ego'
p1310
tp1311
I1
s(S'white'
p1312
S'silence'
p1313
tp1314
I6
s(S'rising'
p1315
S'cost'
p1316
tp1317
I3
s(S'healthy'
p1318
S'relationship'
p1319
tp1320
I6
s(S'social'
p1321
S'gulf'
p1322
tp1323
I2
s(S'ghostly'
p1324
S'silence'
p1325
tp1326
I1
s(S'raw'
p1327
S'intelligence'
p1328
tp1329
I4
s(S'wild'
p1330
S'imagination'
p1331
tp1332
I7
s(S'rich'
p1333
S'imagination'
p1334
tp1335
I1
s(S'glowing'
p1336
S'eyes'
p1337
tp1338
I50
s(S'ghostly'
p1339
S'reflections'
p1340
tp1341
I3
s(S'slim'
p1342
S'chance'
p1343
tp1344
I32
s.